; ModuleID = '14/678.c'
source_filename = "14/678.c"
target datalayout = "e-m:e-p270:32:32-p271:32:32-p272:64:64-i64:64-f80:128-n8:16:32:64-S128"
target triple = "x86_64-pc-linux-gnu"

%struct.stu = type { i64, i64, i64, i64 }

@.str = private unnamed_addr constant [3 x i8] c"%d\00", align 1
@n = common dso_local global i64 0, align 8
@.str.1 = private unnamed_addr constant [7 x i8] c"%d%d%d\00", align 1
@a = common dso_local global [100000 x %struct.stu] zeroinitializer, align 16
@.str.2 = private unnamed_addr constant [7 x i8] c"%d %d\0A\00", align 1
@b = common dso_local global %struct.stu zeroinitializer, align 8

; Function Attrs: noinline nounwind uwtable
define dso_local i32 @comp(i8* %0, i8* %1) #0 {
  %3 = alloca i8*, align 8
  %4 = alloca i8*, align 8
  store i8* %0, i8** %3, align 8
  store i8* %1, i8** %4, align 8
  %5 = load i8*, i8** %4, align 8
  %6 = bitcast i8* %5 to %struct.stu*
  %7 = getelementptr inbounds %struct.stu, %struct.stu* %6, i32 0, i32 3
  %8 = load i64, i64* %7, align 8
  %9 = load i8*, i8** %3, align 8
  %10 = bitcast i8* %9 to %struct.stu*
  %11 = getelementptr inbounds %struct.stu, %struct.stu* %10, i32 0, i32 3
  %12 = load i64, i64* %11, align 8
  %13 = sub nsw i64 %8, %12
  %14 = trunc i64 %13 to i32
  ret i32 %14
}

; Function Attrs: noinline nounwind uwtable
define dso_local i32 @main() #0 {
  %1 = alloca i32, align 4
  %2 = alloca i32, align 4
  %3 = alloca i32, align 4
  store i32 0, i32* %1, align 4
  %4 = call i32 (i8*, ...) @__isoc99_scanf(i8* getelementptr inbounds ([3 x i8], [3 x i8]* @.str, i64 0, i64 0), i64* @n)
  store i32 0, i32* %2, align 4
  br label %5

5:                                                ; preds = %39, %0
  %6 = load i32, i32* %2, align 4
  %7 = sext i32 %6 to i64
  %8 = load i64, i64* @n, align 8
  %9 = icmp slt i64 %7, %8
  br i1 %9, label %10, label %42

10:                                               ; preds = %5
  %11 = load i32, i32* %2, align 4
  %12 = sext i32 %11 to i64
  %13 = getelementptr inbounds [100000 x %struct.stu], [100000 x %struct.stu]* @a, i64 0, i64 %12
  %14 = getelementptr inbounds %struct.stu, %struct.stu* %13, i32 0, i32 0
  %15 = load i32, i32* %2, align 4
  %16 = sext i32 %15 to i64
  %17 = getelementptr inbounds [100000 x %struct.stu], [100000 x %struct.stu]* @a, i64 0, i64 %16
  %18 = getelementptr inbounds %struct.stu, %struct.stu* %17, i32 0, i32 1
  %19 = load i32, i32* %2, align 4
  %20 = sext i32 %19 to i64
  %21 = getelementptr inbounds [100000 x %struct.stu], [100000 x %struct.stu]* @a, i64 0, i64 %20
  %22 = getelementptr inbounds %struct.stu, %struct.stu* %21, i32 0, i32 2
  %23 = call i32 (i8*, ...) @__isoc99_scanf(i8* getelementptr inbounds ([7 x i8], [7 x i8]* @.str.1, i64 0, i64 0), i64* %14, i64* %18, i64* %22)
  %24 = load i32, i32* %2, align 4
  %25 = sext i32 %24 to i64
  %26 = getelementptr inbounds [100000 x %struct.stu], [100000 x %struct.stu]* @a, i64 0, i64 %25
  %27 = getelementptr inbounds %struct.stu, %struct.stu* %26, i32 0, i32 1
  %28 = load i64, i64* %27, align 8
  %29 = load i32, i32* %2, align 4
  %30 = sext i32 %29 to i64
  %31 = getelementptr inbounds [100000 x %struct.stu], [100000 x %struct.stu]* @a, i64 0, i64 %30
  %32 = getelementptr inbounds %struct.stu, %struct.stu* %31, i32 0, i32 2
  %33 = load i64, i64* %32, align 16
  %34 = add nsw i64 %28, %33
  %35 = load i32, i32* %2, align 4
  %36 = sext i32 %35 to i64
  %37 = getelementptr inbounds [100000 x %struct.stu], [100000 x %struct.stu]* @a, i64 0, i64 %36
  %38 = getelementptr inbounds %struct.stu, %struct.stu* %37, i32 0, i32 3
  store i64 %34, i64* %38, align 8
  br label %39

39:                                               ; preds = %10
  %40 = load i32, i32* %2, align 4
  %41 = add nsw i32 %40, 1
  store i32 %41, i32* %2, align 4
  br label %5

42:                                               ; preds = %5
  %43 = load i64, i64* @n, align 8
  call void @qsort(i8* bitcast ([100000 x %struct.stu]* @a to i8*), i64 %43, i64 32, i32 (i8*, i8*)* @comp)
  store i32 0, i32* %2, align 4
  br label %44

44:                                               ; preds = %59, %42
  %45 = load i32, i32* %2, align 4
  %46 = icmp slt i32 %45, 3
  br i1 %46, label %47, label %62

47:                                               ; preds = %44
  %48 = load i32, i32* %2, align 4
  %49 = sext i32 %48 to i64
  %50 = getelementptr inbounds [100000 x %struct.stu], [100000 x %struct.stu]* @a, i64 0, i64 %49
  %51 = getelementptr inbounds %struct.stu, %struct.stu* %50, i32 0, i32 0
  %52 = load i64, i64* %51, align 16
  %53 = load i32, i32* %2, align 4
  %54 = sext i32 %53 to i64
  %55 = getelementptr inbounds [100000 x %struct.stu], [100000 x %struct.stu]* @a, i64 0, i64 %54
  %56 = getelementptr inbounds %struct.stu, %struct.stu* %55, i32 0, i32 3
  %57 = load i64, i64* %56, align 8
  %58 = call i32 (i8*, ...) @printf(i8* getelementptr inbounds ([7 x i8], [7 x i8]* @.str.2, i64 0, i64 0), i64 %52, i64 %57)
  br label %59

59:                                               ; preds = %47
  %60 = load i32, i32* %2, align 4
  %61 = add nsw i32 %60, 1
  store i32 %61, i32* %2, align 4
  br label %44

62:                                               ; preds = %44
  ret i32 0
}

declare dso_local i32 @__isoc99_scanf(i8*, ...) #1

declare dso_local void @qsort(i8*, i64, i64, i32 (i8*, i8*)*) #1

declare dso_local i32 @printf(i8*, ...) #1


!llvm.module.flags = !{!0}
!llvm.ident = !{!1}

!0 = !{i32 1, !"wchar_size", i32 4}
!1 = !{!"clang version 10.0.0-4ubuntu1 "}
